target datalayout = "e-m:e-p270:32:32-p271:32:32-p272:64:64-i64:64-i128:128-f80:128-n8:16:32:64-S128"
target triple = "x86_64-pc-linux-gnu"

%struct.PROV_ECX_CTX = type { i64, ptr, ptr }
%struct.ecx_key_st = type { ptr, ptr, i8, [57 x i8], ptr, i64, i32, %struct.CRYPTO_REF_COUNT }
%struct.CRYPTO_REF_COUNT = type { i32 }

@.str = private unnamed_addr constant [57 x i8] c"../openssl/providers/implementations/exchange/ecx_exch.c\00", align 1
@__func__.ecx_set_peer = private unnamed_addr constant [13 x i8] c"ecx_set_peer\00", align 1

; Function Attrs: nounwind uwtable
define internal i32 @ecx_set_peer(ptr noundef %0, ptr noundef %1) #0 {
  %3 = alloca i32, align 4
  %4 = alloca ptr, align 8
  %5 = alloca ptr, align 8
  %6 = alloca ptr, align 8
  %7 = alloca ptr, align 8
  %8 = alloca i32, align 4
  store ptr %0, ptr %4, align 8, !tbaa !3
  store ptr %1, ptr %5, align 8, !tbaa !3
  call void @llvm.lifetime.start.p0(i64 8, ptr %6) #4
  %9 = load ptr, ptr %4, align 8, !tbaa !3
  store ptr %9, ptr %6, align 8, !tbaa !3
  call void @llvm.lifetime.start.p0(i64 8, ptr %7) #4
  %10 = load ptr, ptr %5, align 8, !tbaa !3
  store ptr %10, ptr %7, align 8, !tbaa !20
  %11 = call i32 @ossl_prov_is_running()
  %12 = icmp ne i32 %11, 0
  br i1 %12, label %14, label %13

13:                                               ; preds = %2
  store i32 0, ptr %3, align 4
  store i32 1, ptr %8, align 4
  br label %40

14:                                               ; preds = %2
  %15 = load ptr, ptr %6, align 8, !tbaa !3
  %16 = icmp eq ptr %15, null
  br i1 %16, label %32, label %17

17:                                               ; preds = %14
  %18 = load ptr, ptr %7, align 8, !tbaa !20
  %19 = icmp eq ptr %18, null
  br i1 %19, label %32, label %20

20:                                               ; preds = %17
  %21 = load ptr, ptr %7, align 8, !tbaa !20
  %22 = getelementptr inbounds nuw %struct.ecx_key_st, ptr %21, i32 0, i32 5
  %23 = load i64, ptr %22, align 8, !tbaa !21
  %24 = load ptr, ptr %6, align 8, !tbaa !3
  %25 = getelementptr inbounds nuw %struct.PROV_ECX_CTX, ptr %24, i32 0, i32 0
  %26 = load i64, ptr %25, align 8, !tbaa !19
  %27 = icmp ne i64 %23, %26
  br i1 %27, label %32, label %28

28:                                               ; preds = %20
  %29 = load ptr, ptr %7, align 8, !tbaa !20
  %30 = call i32 @ossl_ecx_key_up_ref(ptr noundef %29)
  %31 = icmp ne i32 %30, 0
  br i1 %31, label %33, label %32

32:                                               ; preds = %28, %20, %17, %14
  call void @ERR_new()
  call void @ERR_set_debug(ptr noundef @.str, i32 noundef 121, ptr noundef @__func__.ecx_set_peer)
  call void (i32, i32, ptr, ...) @ERR_set_error(i32 noundef 57, i32 noundef 786691, ptr noundef null)
  store i32 0, ptr %3, align 4
  store i32 1, ptr %8, align 4
  br label %40

33:                                               ; preds = %28
  %34 = load ptr, ptr %6, align 8, !tbaa !3
  %35 = getelementptr inbounds nuw %struct.PROV_ECX_CTX, ptr %34, i32 0, i32 2
  %36 = load ptr, ptr %35, align 8, !tbaa !15
  call void @ossl_ecx_key_free(ptr noundef %36)
  %37 = load ptr, ptr %7, align 8, !tbaa !20
  %38 = load ptr, ptr %6, align 8, !tbaa !3
  %39 = getelementptr inbounds nuw %struct.PROV_ECX_CTX, ptr %38, i32 0, i32 2
  store ptr %37, ptr %39, align 8, !tbaa !15
  store i32 1, ptr %3, align 4
  store i32 1, ptr %8, align 4
  br label %40

40:                                               ; preds = %33, %32, %13
  call void @llvm.lifetime.end.p0(i64 8, ptr %7) #4
  call void @llvm.lifetime.end.p0(i64 8, ptr %6) #4
  %41 = load i32, ptr %3, align 4
  ret i32 %41
}